; Function Attrs: nounwind uwtable
define range(i32 -1, 1) i32 @H5HF_delete(ptr noundef %0, i64 noundef %1) local_unnamed_addr #2 {
  %3 = load i8, ptr @H5HF_init_g, align 1, !tbaa !3, !range !7, !noundef !8
  %4 = trunc nuw i8 %3 to i1
  %5 = load i8, ptr @H5_libterm_g, align 1, !range !7
  %6 = trunc nuw i8 %5 to i1
  %7 = select i1 %4, i1 true, i1 %6
  br i1 %7, label %8, label %.thread, !prof !9

.thread:                                          ; preds = %2
  store i8 1, ptr @H5HF_init_g, align 1, !tbaa !3
  br label %11

8:                                                ; preds = %2
  %9 = xor i1 %6, true
  %10 = select i1 %4, i1 true, i1 %9
  br i1 %10, label %11, label %.thread16, !prof !10

11:                                               ; preds = %.thread, %8
  %12 = tail call ptr @H5HF__hdr_protect(ptr noundef %0, i64 noundef %1, i32 noundef 0) #5
  %13 = icmp eq ptr %12, null
  br i1 %13, label %14, label %18

14:                                               ; preds = %11
  %15 = load i64, ptr @H5E_HEAP_g, align 8, !tbaa !11
  %16 = load i64, ptr @H5E_CANTPROTECT_g, align 8, !tbaa !11
  %17 = tail call i32 (ptr, ptr, i32, i64, i64, ptr, ...) @H5E_printf_stack(ptr noundef nonnull @.str, ptr noundef nonnull @__func__.H5HF_delete, i32 noundef 857, i64 noundef %15, i64 noundef %16, ptr noundef nonnull @.str.3) #5
  br label %.thread16

18:                                               ; preds = %11
  %19 = getelementptr inbounds nuw i8, ptr %12, i64 608
  %20 = load i64, ptr %19, align 8, !tbaa !48
  %.not = icmp eq i64 %20, 0
  br i1 %.not, label %23, label %21

21:                                               ; preds = %18
  %22 = getelementptr inbounds nuw i8, ptr %12, i64 616
  store i8 1, ptr %22, align 8, !tbaa !39
  br label %30

23:                                               ; preds = %18
  %24 = tail call i32 @H5HF__hdr_delete(ptr noundef nonnull %12) #5
  %25 = icmp slt i32 %24, 0
  br i1 %25, label %26, label %.thread16

26:                                               ; preds = %23
  %27 = load i64, ptr @H5E_HEAP_g, align 8, !tbaa !11
  %28 = load i64, ptr @H5E_CANTDELETE_g, align 8, !tbaa !11
  %29 = tail call i32 (ptr, ptr, i32, i64, i64, ptr, ...) @H5E_printf_stack(ptr noundef nonnull @.str, ptr noundef nonnull @__func__.H5HF_delete, i32 noundef 865, i64 noundef %27, i64 noundef %28, ptr noundef nonnull @.str.37) #5
  br label %30

30:                                               ; preds = %26, %21
  %.1 = phi i32 [ 0, %21 ], [ -1, %26 ]
  %31 = tail call i32 @H5AC_unprotect(ptr noundef %0, ptr noundef nonnull @H5AC_FHEAP_HDR, i64 noundef %1, ptr noundef nonnull %12, i32 noundef 0) #5
  %32 = icmp slt i32 %31, 0
  br i1 %32, label %33, label %.thread16

33:                                               ; preds = %30
  %34 = load i64, ptr @H5E_HEAP_g, align 8, !tbaa !11
  %35 = load i64, ptr @H5E_CANTUNPROTECT_g, align 8, !tbaa !11
  %36 = tail call i32 (ptr, ptr, i32, i64, i64, ptr, ...) @H5E_printf_stack(ptr noundef nonnull @.str, ptr noundef nonnull @__func__.H5HF_delete, i32 noundef 872, i64 noundef %34, i64 noundef %35, ptr noundef nonnull @.str.6) #5
  br label %.thread16

.thread16:                                        ; preds = %23, %14, %30, %33, %8
  %.0 = phi i32 [ -1, %33 ], [ %.1, %30 ], [ 0, %8 ], [ 0, %23 ], [ -1, %14 ]
  ret i32 %.0
}